target datalayout = "e-m:e-p270:32:32-p271:32:32-p272:64:64-i64:64-i128:128-f80:128-n8:16:32:64-S128"
target triple = "x86_64-pc-linux-gnu"

%struct.darktable_t = type { %struct.dt_codepath_t, i32, i32, ptr, ptr, ptr, ptr, ptr, ptr, ptr, ptr, ptr, ptr, ptr, ptr, ptr, ptr, ptr, ptr, ptr, ptr, ptr, ptr, ptr, ptr, ptr, ptr, ptr, ptr, ptr, [64 x %struct.dt_pthread_mutex_t], %struct.dt_pthread_mutex_t, %struct.dt_pthread_mutex_t, %struct.dt_pthread_mutex_t, %struct.dt_pthread_mutex_t, %struct.dt_pthread_mutex_t, ptr, ptr, ptr, ptr, ptr, ptr, ptr, ptr, ptr, ptr, ptr, ptr, ptr, %struct.dt_lua_state_t, ptr, double, ptr, i32, [47 x i32], i32, i32, ptr, ptr, %struct.dt_sys_resources_t, %struct.dt_backthumb_t, %struct.dt_gimp_t }
%struct.dt_codepath_t = type { i8, [3 x i8] }
%struct.dt_pthread_mutex_t = type { %union.pthread_mutex_t }
%union.pthread_mutex_t = type { %struct.__pthread_mutex_s }
%struct.__pthread_mutex_s = type { i32, i32, i32, i32, i32, i16, i16, %struct.__pthread_internal_list }
%struct.__pthread_internal_list = type { ptr, ptr }
%struct.dt_lua_state_t = type { i32 }
%struct.dt_sys_resources_t = type { i64, i64, ptr, ptr, i32 }
%struct.dt_backthumb_t = type { double, double, i32, i32, i32, i32 }
%struct.dt_gimp_t = type { i32, ptr, ptr, i32, i32 }
%struct.backend_kwallet_context_t = type { ptr, ptr, ptr }
%struct._GError = type { i32, i32, ptr }
%struct._GHashTableIter = type { ptr, ptr, ptr, i32, i32, ptr }
%struct._GArray = type { ptr, i32 }

@.str = private unnamed_addr constant [9 x i8] c"slot %s\0A\00", align 1
@darktable = external global %struct.darktable_t, align 8
@.str.1 = private unnamed_addr constant [41 x i8] c"[pwstorage_kwallet_set] storing (%s, %s)\00", align 1
@.str.2 = private unnamed_addr constant [9 x i8] c"writeMap\00", align 1
@.str.3 = private unnamed_addr constant [10 x i8] c"(iss@ays)\00", align 1
@kwallet_folder = internal global ptr @.str.31, align 8
@.str.4 = private unnamed_addr constant [3 x i8] c"ay\00", align 1
@app_id = internal global ptr @.str.32, align 8
@.str.5 = private unnamed_addr constant [65 x i8] c"[pwstorage_kwallet_set] Warning: bad return code %d from kwallet\00", align 1
@.str.11 = private unnamed_addr constant [63 x i8] c"[pwstorage_kwallet] ERROR: failed to complete kwallet call: %s\00", align 1

; Function Attrs: nounwind uwtable
define internal i32 @check_error(ptr noundef %0) #0 {
  %2 = alloca i32, align 4
  %3 = alloca ptr, align 8
  store ptr %0, ptr %3, align 8, !tbaa !11
  %4 = load ptr, ptr %3, align 8, !tbaa !11
  %5 = icmp ne ptr %4, null
  br i1 %5, label %6, label %23

6:                                                ; preds = %1
  br label %7

7:                                                ; preds = %6
  %8 = load i32, ptr getelementptr inbounds nuw (%struct.darktable_t, ptr @darktable, i32 0, i32 2), align 8, !tbaa !18
  %9 = and i32 64, %8
  %10 = icmp ne i32 %9, 0
  br i1 %10, label %11, label %20

11:                                               ; preds = %7
  %12 = load i32, ptr getelementptr inbounds nuw (%struct.darktable_t, ptr @darktable, i32 0, i32 2), align 8, !tbaa !18
  %13 = xor i32 %12, -1
  %14 = and i32 0, %13
  %15 = icmp ne i32 %14, 0
  br i1 %15, label %20, label %16

16:                                               ; preds = %11
  %17 = load ptr, ptr %3, align 8, !tbaa !11
  %18 = getelementptr inbounds nuw %struct._GError, ptr %17, i32 0, i32 2
  %19 = load ptr, ptr %18, align 8, !tbaa !56
  call void (ptr, ...) @dt_print_ext(ptr noundef @.str.11, ptr noundef %19)
  br label %20

20:                                               ; preds = %16, %11, %7
  br label %21

21:                                               ; preds = %20
  %22 = load ptr, ptr %3, align 8, !tbaa !11
  call void @g_error_free(ptr noundef %22)
  store i32 1, ptr %2, align 4
  br label %24

23:                                               ; preds = %1
  store i32 0, ptr %2, align 4
  br label %24

24:                                               ; preds = %23, %21
  %25 = load i32, ptr %2, align 4
  ret i32 %25
}

; Function Attrs: nounwind uwtable
define i32 @dt_pwstorage_kwallet_set(ptr noundef %0, ptr noundef %1, ptr noundef %2) #0 {
  %4 = alloca i32, align 4
  %5 = alloca ptr, align 8
  %6 = alloca ptr, align 8
  %7 = alloca ptr, align 8
  %8 = alloca ptr, align 8
  %9 = alloca %struct._GHashTableIter, align 8
  %10 = alloca ptr, align 8
  %11 = alloca ptr, align 8
  %12 = alloca i32, align 4
  %13 = alloca i32, align 4
  %14 = alloca i32, align 4
  %15 = alloca i32, align 4
  %16 = alloca i64, align 8
  %17 = alloca ptr, align 8
  %18 = alloca i32, align 4
  %19 = alloca ptr, align 8
  %20 = alloca i32, align 4
  %21 = alloca ptr, align 8
  %22 = alloca ptr, align 8
  %23 = alloca ptr, align 8
  %24 = alloca i32, align 4
  store ptr %0, ptr %5, align 8, !tbaa !6
  store ptr %1, ptr %6, align 8, !tbaa !59
  store ptr %2, ptr %7, align 8, !tbaa !65
  %25 = load ptr, ptr %6, align 8, !tbaa !59
  %26 = call i32 (ptr, ...) @printf(ptr noundef @.str, ptr noundef %25)
  call void @llvm.lifetime.start.p0(i64 8, ptr %8) #8
  %27 = call ptr @g_array_new(i32 noundef 0, i32 noundef 0, i32 noundef 1)
  store ptr %27, ptr %8, align 8, !tbaa !67
  call void @llvm.lifetime.start.p0(i64 40, ptr %9) #8
  %28 = load ptr, ptr %7, align 8, !tbaa !65
  call void @g_hash_table_iter_init(ptr noundef %9, ptr noundef %28)
  call void @llvm.lifetime.start.p0(i64 8, ptr %10) #8
  call void @llvm.lifetime.start.p0(i64 8, ptr %11) #8
  call void @llvm.lifetime.start.p0(i64 4, ptr %12) #8
  %29 = load ptr, ptr %7, align 8, !tbaa !65
  %30 = call i32 @g_hash_table_size(ptr noundef %29)
  store i32 %30, ptr %12, align 4, !tbaa !62
  call void @llvm.lifetime.start.p0(i64 4, ptr %13) #8
  call void @llvm.lifetime.start.p0(i64 4, ptr %14) #8
  %31 = load i32, ptr %12, align 4, !tbaa !62
  store i32 %31, ptr %14, align 4, !tbaa !62
  %32 = load i32, ptr %14, align 4, !tbaa !62
  %33 = call i1 @llvm.is.constant.i32(i32 %32)
  br i1 %33, label %34, label %50

34:                                               ; preds = %3
  %35 = load i32, ptr %14, align 4, !tbaa !62
  %36 = and i32 %35, 255
  %37 = shl i32 %36, 24
  %38 = load i32, ptr %14, align 4, !tbaa !62
  %39 = and i32 %38, 65280
  %40 = shl i32 %39, 8
  %41 = or i32 %37, %40
  %42 = load i32, ptr %14, align 4, !tbaa !62
  %43 = and i32 %42, 16711680
  %44 = lshr i32 %43, 8
  %45 = or i32 %41, %44
  %46 = load i32, ptr %14, align 4, !tbaa !62
  %47 = and i32 %46, -16777216
  %48 = lshr i32 %47, 24
  %49 = or i32 %45, %48
  store i32 %49, ptr %13, align 4, !tbaa !62
  br label %53

50:                                               ; preds = %3
  %51 = load i32, ptr %14, align 4, !tbaa !62
  %52 = call i32 asm "bswapl $0", "=r,0,~{dirflag},~{fpsr},~{flags}"(i32 %51) #10, !srcloc !69
  store i32 %52, ptr %13, align 4, !tbaa !62
  br label %53

53:                                               ; preds = %50, %34
  %54 = load i32, ptr %13, align 4, !tbaa !62
  store i32 %54, ptr %15, align 4, !tbaa !62
  call void @llvm.lifetime.end.p0(i64 4, ptr %14) #8
  call void @llvm.lifetime.end.p0(i64 4, ptr %13) #8
  %55 = load i32, ptr %15, align 4, !tbaa !62
  store i32 %55, ptr %12, align 4, !tbaa !62
  %56 = load ptr, ptr %8, align 8, !tbaa !67
  %57 = call ptr @g_array_append_vals(ptr noundef %56, ptr noundef %12, i32 noundef 4)
  br label %58

58:                                               ; preds = %108, %53
  %59 = call i32 @g_hash_table_iter_next(ptr noundef %9, ptr noundef %10, ptr noundef %11)
  %60 = icmp ne i32 %59, 0
  br i1 %60, label %61, label %109

61:                                               ; preds = %58
  br label %62

62:                                               ; preds = %61
  %63 = load i32, ptr getelementptr inbounds nuw (%struct.darktable_t, ptr @darktable, i32 0, i32 2), align 8, !tbaa !18
  %64 = and i32 64, %63
  %65 = icmp ne i32 %64, 0
  br i1 %65, label %66, label %74

66:                                               ; preds = %62
  %67 = load i32, ptr getelementptr inbounds nuw (%struct.darktable_t, ptr @darktable, i32 0, i32 2), align 8, !tbaa !18
  %68 = xor i32 %67, -1
  %69 = and i32 0, %68
  %70 = icmp ne i32 %69, 0
  br i1 %70, label %74, label %71

71:                                               ; preds = %66
  %72 = load ptr, ptr %10, align 8, !tbaa !70
  %73 = load ptr, ptr %11, align 8, !tbaa !70
  call void (ptr, ...) @dt_print_ext(ptr noundef @.str.1, ptr noundef %72, ptr noundef %73)
  br label %74

74:                                               ; preds = %71, %66, %62
  br label %75

75:                                               ; preds = %74
  br label %76

76:                                               ; preds = %75
  call void @llvm.lifetime.start.p0(i64 8, ptr %16) #8
  call void @llvm.lifetime.start.p0(i64 8, ptr %17) #8
  %77 = load ptr, ptr %10, align 8, !tbaa !70
  %78 = call ptr @char2qstring(ptr noundef %77, ptr noundef %16)
  store ptr %78, ptr %17, align 8, !tbaa !59
  %79 = load ptr, ptr %17, align 8, !tbaa !59
  %80 = icmp eq ptr %79, null
  br i1 %80, label %81, label %84

81:                                               ; preds = %76
  %82 = load ptr, ptr %8, align 8, !tbaa !67
  %83 = call ptr @g_array_free(ptr noundef %82, i32 noundef 0)
  call void @g_free(ptr noundef %83)
  store i32 0, ptr %4, align 4
  store i32 1, ptr %18, align 4
  br label %106

84:                                               ; preds = %76
  %85 = load ptr, ptr %8, align 8, !tbaa !67
  %86 = load ptr, ptr %17, align 8, !tbaa !59
  %87 = load i64, ptr %16, align 8, !tbaa !71
  %88 = trunc i64 %87 to i32
  %89 = call ptr @g_array_append_vals(ptr noundef %85, ptr noundef %86, i32 noundef %88)
  %90 = load ptr, ptr %17, align 8, !tbaa !59
  call void @g_free(ptr noundef %90)
  call void @llvm.lifetime.start.p0(i64 8, ptr %19) #8
  %91 = load ptr, ptr %11, align 8, !tbaa !70
  %92 = call ptr @char2qstring(ptr noundef %91, ptr noundef %16)
  store ptr %92, ptr %19, align 8, !tbaa !59
  %93 = load ptr, ptr %19, align 8, !tbaa !59
  %94 = icmp eq ptr %93, null
  br i1 %94, label %95, label %98

95:                                               ; preds = %84
  %96 = load ptr, ptr %8, align 8, !tbaa !67
  %97 = call ptr @g_array_free(ptr noundef %96, i32 noundef 0)
  call void @g_free(ptr noundef %97)
  store i32 0, ptr %4, align 4
  store i32 1, ptr %18, align 4
  br label %105

98:                                               ; preds = %84
  %99 = load ptr, ptr %8, align 8, !tbaa !67
  %100 = load ptr, ptr %19, align 8, !tbaa !59
  %101 = load i64, ptr %16, align 8, !tbaa !71
  %102 = trunc i64 %101 to i32
  %103 = call ptr @g_array_append_vals(ptr noundef %99, ptr noundef %100, i32 noundef %102)
  %104 = load ptr, ptr %19, align 8, !tbaa !59
  call void @g_free(ptr noundef %104)
  store i32 0, ptr %18, align 4
  br label %105

105:                                              ; preds = %98, %95
  call void @llvm.lifetime.end.p0(i64 8, ptr %19) #8
  br label %106

106:                                              ; preds = %105, %81
  call void @llvm.lifetime.end.p0(i64 8, ptr %17) #8
  call void @llvm.lifetime.end.p0(i64 8, ptr %16) #8
  %107 = load i32, ptr %18, align 4
  switch i32 %107, label %168 [
    i32 0, label %108
  ]

108:                                              ; preds = %106
  br label %58

109:                                              ; preds = %58
  call void @llvm.lifetime.start.p0(i64 4, ptr %20) #8
  %110 = load ptr, ptr %5, align 8, !tbaa !6
  %111 = call i32 @get_wallet_handle(ptr noundef %110)
  store i32 %111, ptr %20, align 4, !tbaa !62
  call void @llvm.lifetime.start.p0(i64 8, ptr %21) #8
  store ptr null, ptr %21, align 8, !tbaa !11
  call void @llvm.lifetime.start.p0(i64 8, ptr %22) #8
  %112 = load ptr, ptr %5, align 8, !tbaa !6
  %113 = getelementptr inbounds nuw %struct.backend_kwallet_context_t, ptr %112, i32 0, i32 1
  %114 = load ptr, ptr %113, align 8, !tbaa !58
  %115 = load i32, ptr %20, align 4, !tbaa !62
  %116 = load ptr, ptr @kwallet_folder, align 8, !tbaa !59
  %117 = load ptr, ptr %6, align 8, !tbaa !59
  %118 = load ptr, ptr %8, align 8, !tbaa !67
  %119 = getelementptr inbounds nuw %struct._GArray, ptr %118, i32 0, i32 0
  %120 = load ptr, ptr %119, align 8, !tbaa !72
  %121 = load ptr, ptr %8, align 8, !tbaa !67
  %122 = getelementptr inbounds nuw %struct._GArray, ptr %121, i32 0, i32 1
  %123 = load i32, ptr %122, align 8, !tbaa !74
  %124 = zext i32 %123 to i64
  %125 = load ptr, ptr %8, align 8, !tbaa !67
  %126 = getelementptr inbounds nuw %struct._GArray, ptr %125, i32 0, i32 0
  %127 = load ptr, ptr %126, align 8, !tbaa !72
  %128 = call ptr @g_variant_new_from_data(ptr noundef @.str.4, ptr noundef %120, i64 noundef %124, i32 noundef 1, ptr noundef @g_free, ptr noundef %127)
  %129 = load ptr, ptr @app_id, align 8, !tbaa !59
  %130 = call ptr (ptr, ...) @g_variant_new(ptr noundef @.str.3, i32 noundef %115, ptr noundef %116, ptr noundef %117, ptr noundef %128, ptr noundef %129)
  %131 = call ptr @g_dbus_proxy_call_sync(ptr noundef %114, ptr noundef @.str.2, ptr noundef %130, i32 noundef 0, i32 noundef -1, ptr noundef null, ptr noundef %21)
  store ptr %131, ptr %22, align 8, !tbaa !60
  %132 = load ptr, ptr %8, align 8, !tbaa !67
  %133 = call ptr @g_array_free(ptr noundef %132, i32 noundef 0)
  %134 = load ptr, ptr %21, align 8, !tbaa !11
  %135 = call i32 @check_error(ptr noundef %134)
  %136 = icmp ne i32 %135, 0
  br i1 %136, label %137, label %139

137:                                              ; preds = %109
  %138 = load ptr, ptr %22, align 8, !tbaa !60
  call void @g_variant_unref(ptr noundef %138)
  store i32 0, ptr %4, align 4
  store i32 1, ptr %18, align 4
  br label %167

139:                                              ; preds = %109
  call void @llvm.lifetime.start.p0(i64 8, ptr %23) #8
  %140 = load ptr, ptr %22, align 8, !tbaa !60
  %141 = call ptr @g_variant_get_child_value(ptr noundef %140, i64 noundef 0)
  store ptr %141, ptr %23, align 8, !tbaa !60
  call void @llvm.lifetime.start.p0(i64 4, ptr %24) #8
  %142 = load ptr, ptr %23, align 8, !tbaa !60
  %143 = call i32 @g_variant_get_int32(ptr noundef %142)
  store i32 %143, ptr %24, align 4, !tbaa !62
  %144 = load ptr, ptr %23, align 8, !tbaa !60
  call void @g_variant_unref(ptr noundef %144)
  %145 = load ptr, ptr %22, align 8, !tbaa !60
  call void @g_variant_unref(ptr noundef %145)
  %146 = load i32, ptr %24, align 4, !tbaa !62
  %147 = icmp ne i32 %146, 0
  br i1 %147, label %148, label %163

148:                                              ; preds = %139
  br label %149

149:                                              ; preds = %148
  %150 = load i32, ptr getelementptr inbounds nuw (%struct.darktable_t, ptr @darktable, i32 0, i32 2), align 8, !tbaa !18
  %151 = and i32 64, %150
  %152 = icmp ne i32 %151, 0
  br i1 %152, label %153, label %160

153:                                              ; preds = %149
  %154 = load i32, ptr getelementptr inbounds nuw (%struct.darktable_t, ptr @darktable, i32 0, i32 2), align 8, !tbaa !18
  %155 = xor i32 %154, -1
  %156 = and i32 0, %155
  %157 = icmp ne i32 %156, 0
  br i1 %157, label %160, label %158

158:                                              ; preds = %153
  %159 = load i32, ptr %24, align 4, !tbaa !62
  call void (ptr, ...) @dt_print_ext(ptr noundef @.str.5, i32 noundef %159)
  br label %160

160:                                              ; preds = %158, %153, %149
  br label %161

161:                                              ; preds = %160
  br label %162

162:                                              ; preds = %161
  br label %163

163:                                              ; preds = %162, %139
  %164 = load i32, ptr %24, align 4, !tbaa !62
  %165 = icmp eq i32 %164, 0
  %166 = zext i1 %165 to i32
  store i32 %166, ptr %4, align 4
  store i32 1, ptr %18, align 4
  call void @llvm.lifetime.end.p0(i64 4, ptr %24) #8
  call void @llvm.lifetime.end.p0(i64 8, ptr %23) #8
  br label %167

167:                                              ; preds = %163, %137
  call void @llvm.lifetime.end.p0(i64 8, ptr %22) #8
  call void @llvm.lifetime.end.p0(i64 8, ptr %21) #8
  call void @llvm.lifetime.end.p0(i64 4, ptr %20) #8
  br label %168

168:                                              ; preds = %167, %106
  call void @llvm.lifetime.end.p0(i64 4, ptr %12) #8
  call void @llvm.lifetime.end.p0(i64 8, ptr %11) #8
  call void @llvm.lifetime.end.p0(i64 8, ptr %10) #8
  call void @llvm.lifetime.end.p0(i64 40, ptr %9) #8
  call void @llvm.lifetime.end.p0(i64 8, ptr %8) #8
  %169 = load i32, ptr %4, align 4
  ret i32 %169
}