; Function Attrs: nounwind uwtable
define range(i32 0, 2) i32 @dt_pwstorage_kwallet_set(ptr noundef readonly captures(none) %0, ptr noundef %1, ptr noundef %2) local_unnamed_addr #0 {
  %4 = alloca %struct._GHashTableIter, align 8
  %5 = alloca ptr, align 8
  %6 = alloca ptr, align 8
  %7 = alloca i32, align 4
  %8 = alloca i64, align 8
  %9 = alloca ptr, align 8
  %10 = tail call i32 (ptr, ...) @printf(ptr noundef nonnull dereferenceable(1) @.str, ptr noundef %1)
  %11 = tail call ptr @g_array_new(i32 noundef 0, i32 noundef 0, i32 noundef 1) #10
  call void @llvm.lifetime.start.p0(i64 40, ptr nonnull %4) #10
  call void @g_hash_table_iter_init(ptr noundef nonnull %4, ptr noundef %2) #10
  call void @llvm.lifetime.start.p0(i64 8, ptr nonnull %5) #10
  call void @llvm.lifetime.start.p0(i64 8, ptr nonnull %6) #10
  call void @llvm.lifetime.start.p0(i64 4, ptr nonnull %7) #10
  %12 = call i32 @g_hash_table_size(ptr noundef %2) #10
  %13 = call i32 asm "bswapl $0", "=r,0,~{dirflag},~{fpsr},~{flags}"(i32 %12) #11, !srcloc !59
  store i32 %13, ptr %7, align 4, !tbaa !60
  %14 = call ptr @g_array_append_vals(ptr noundef %11, ptr noundef nonnull %7, i32 noundef 4) #10
  %15 = call i32 @g_hash_table_iter_next(ptr noundef nonnull %4, ptr noundef nonnull %5, ptr noundef nonnull %6) #10
  %.not52 = icmp eq i32 %15, 0
  br i1 %.not52, label %._crit_edge, label %.lr.ph

.lr.ph:                                           ; preds = %3, %33
  %16 = load i32, ptr getelementptr inbounds nuw (i8, ptr @darktable, i64 8), align 8, !tbaa !16
  %17 = and i32 %16, 64
  %.not48 = icmp eq i32 %17, 0
  br i1 %.not48, label %21, label %18

18:                                               ; preds = %.lr.ph
  %19 = load ptr, ptr %5, align 8, !tbaa !61
  %20 = load ptr, ptr %6, align 8, !tbaa !61
  call void (ptr, ...) @dt_print_ext(ptr noundef nonnull @.str.1, ptr noundef %19, ptr noundef %20) #10
  br label %21

21:                                               ; preds = %18, %.lr.ph
  call void @llvm.lifetime.start.p0(i64 8, ptr nonnull %8) #10
  %22 = load ptr, ptr %5, align 8, !tbaa !61
  %23 = call fastcc ptr @char2qstring(ptr noundef %22, ptr noundef %8)
  %24 = icmp eq ptr %23, null
  br i1 %24, label %.critedge, label %26

.critedge:                                        ; preds = %21
  %25 = call ptr @g_array_free(ptr noundef %11, i32 noundef 0) #10
  call void @g_free(ptr noundef %25) #10
  call void @llvm.lifetime.end.p0(i64 8, ptr nonnull %8) #10
  br label %67

26:                                               ; preds = %21
  %27 = load i64, ptr %8, align 8, !tbaa !62
  %28 = trunc i64 %27 to i32
  %29 = call ptr @g_array_append_vals(ptr noundef %11, ptr noundef nonnull %23, i32 noundef %28) #10
  call void @g_free(ptr noundef nonnull %23) #10
  %30 = load ptr, ptr %6, align 8, !tbaa !61
  %31 = call fastcc ptr @char2qstring(ptr noundef %30, ptr noundef %8)
  %.not51 = icmp eq ptr %31, null
  br i1 %.not51, label %.thread, label %33

.thread:                                          ; preds = %26
  %32 = call ptr @g_array_free(ptr noundef %11, i32 noundef 0) #10
  call void @g_free(ptr noundef %32) #10
  call void @llvm.lifetime.end.p0(i64 8, ptr nonnull %8) #10
  br label %67

33:                                               ; preds = %26
  %34 = load i64, ptr %8, align 8, !tbaa !62
  %35 = trunc i64 %34 to i32
  %36 = call ptr @g_array_append_vals(ptr noundef %11, ptr noundef nonnull %31, i32 noundef %35) #10
  call void @g_free(ptr noundef nonnull %31) #10
  call void @llvm.lifetime.end.p0(i64 8, ptr nonnull %8) #10
  %37 = call i32 @g_hash_table_iter_next(ptr noundef nonnull %4, ptr noundef nonnull %5, ptr noundef nonnull %6) #10
  %.not = icmp eq i32 %37, 0
  br i1 %.not, label %._crit_edge, label %.lr.ph

._crit_edge:                                      ; preds = %33, %3
  %38 = call fastcc i32 @get_wallet_handle(ptr noundef %0)
  call void @llvm.lifetime.start.p0(i64 8, ptr nonnull %9) #10
  store ptr null, ptr %9, align 8, !tbaa !6
  %39 = getelementptr inbounds nuw i8, ptr %0, i64 8
  %40 = load ptr, ptr %39, align 8, !tbaa !57
  %41 = load ptr, ptr %11, align 8, !tbaa !63
  %42 = getelementptr inbounds nuw i8, ptr %11, i64 8
  %43 = load i32, ptr %42, align 8, !tbaa !65
  %44 = zext i32 %43 to i64
  %45 = call ptr @g_variant_new_from_data(ptr noundef nonnull @.str.4, ptr noundef %41, i64 noundef %44, i32 noundef 1, ptr noundef nonnull @g_free, ptr noundef %41) #10
  %46 = call ptr (ptr, ...) @g_variant_new(ptr noundef nonnull @.str.3, i32 noundef %38, ptr noundef nonnull @.str.31, ptr noundef %1, ptr noundef %45, ptr noundef nonnull @.str.32) #10
  %47 = call ptr @g_dbus_proxy_call_sync(ptr noundef %40, ptr noundef nonnull @.str.2, ptr noundef %46, i32 noundef 0, i32 noundef -1, ptr noundef null, ptr noundef nonnull %9) #10
  %48 = call ptr @g_array_free(ptr noundef nonnull %11, i32 noundef 0) #10
  %49 = load ptr, ptr %9, align 8, !tbaa !6
  %.not.i = icmp eq ptr %49, null
  br i1 %.not.i, label %57, label %50

50:                                               ; preds = %._crit_edge
  %51 = load i32, ptr getelementptr inbounds nuw (i8, ptr @darktable, i64 8), align 8, !tbaa !16
  %52 = and i32 %51, 64
  %.not4.i = icmp eq i32 %52, 0
  br i1 %.not4.i, label %56, label %53

53:                                               ; preds = %50
  %54 = getelementptr inbounds nuw i8, ptr %49, i64 8
  %55 = load ptr, ptr %54, align 8, !tbaa !54
  call void (ptr, ...) @dt_print_ext(ptr noundef nonnull @.str.11, ptr noundef %55) #10
  br label %56

56:                                               ; preds = %53, %50
  call void @g_error_free(ptr noundef nonnull %49) #10
  call void @g_variant_unref(ptr noundef %47) #10
  br label %66

57:                                               ; preds = %._crit_edge
  %58 = call ptr @g_variant_get_child_value(ptr noundef %47, i64 noundef 0) #10
  %59 = call i32 @g_variant_get_int32(ptr noundef %58) #10
  call void @g_variant_unref(ptr noundef %58) #10
  call void @g_variant_unref(ptr noundef %47) #10
  %.not46 = icmp eq i32 %59, 0
  br i1 %.not46, label %64, label %60

60:                                               ; preds = %57
  %61 = load i32, ptr getelementptr inbounds nuw (i8, ptr @darktable, i64 8), align 8, !tbaa !16
  %62 = and i32 %61, 64
  %.not47 = icmp eq i32 %62, 0
  br i1 %.not47, label %64, label %63

63:                                               ; preds = %60
  call void (ptr, ...) @dt_print_ext(ptr noundef nonnull @.str.5, i32 noundef %59) #10
  br label %64

64:                                               ; preds = %60, %63, %57
  %65 = zext i1 %.not46 to i32
  br label %66

66:                                               ; preds = %64, %56
  %.4 = phi i32 [ 0, %56 ], [ %65, %64 ]
  call void @llvm.lifetime.end.p0(i64 8, ptr nonnull %9) #10
  br label %67

67:                                               ; preds = %.thread, %.critedge, %66
  %.3 = phi i32 [ %.4, %66 ], [ 0, %.critedge ], [ 0, %.thread ]
  call void @llvm.lifetime.end.p0(i64 4, ptr nonnull %7) #10
  call void @llvm.lifetime.end.p0(i64 8, ptr nonnull %6) #10
  call void @llvm.lifetime.end.p0(i64 8, ptr nonnull %5) #10
  call void @llvm.lifetime.end.p0(i64 40, ptr nonnull %4) #10
  ret i32 %.3
}